; Function Attrs: nounwind uwtable
define void @glfwSetWindowTitle(ptr noundef %0, ptr noundef %1) local_unnamed_addr #0 {
  %3 = load i32, ptr @_glfw, align 8, !tbaa !138
  %.not = icmp eq i32 %3, 0
  br i1 %.not, label %4, label %5

4:                                                ; preds = %2
  tail call void (i32, ptr, ...) @_glfwInputError(i32 noundef 65537, ptr noundef null) #7
  br label %10

5:                                                ; preds = %2
  %6 = getelementptr inbounds nuw i8, ptr %0, i64 96
  %7 = load ptr, ptr %6, align 8, !tbaa !177
  %8 = tail call ptr @_glfw_strdup(ptr noundef %1) #7
  store ptr %8, ptr %6, align 8, !tbaa !177
  %9 = load ptr, ptr getelementptr inbounds nuw (i8, ptr @_glfw, i64 288), align 8, !tbaa !223
  tail call void %9(ptr noundef %0, ptr noundef %1) #7
  tail call void @_glfw_free(ptr noundef %7) #7
  br label %10

10:                                               ; preds = %5, %4
  ret void
}